; Function Attrs: nounwind sspstrong uwtable
define internal i64 @ossl_x509stctx_get_curr_crl(i64 noundef %0) #0 {
  %2 = tail call ptr @rb_check_typeddata(i64 noundef %0, ptr noundef nonnull @ossl_x509stctx_type) #5
  %.not = icmp eq ptr %2, null
  br i1 %.not, label %3, label %5

3:                                                ; preds = %1
  %4 = load i64, ptr @rb_eRuntimeError, align 8, !tbaa !20
  tail call void (i64, ptr, ...) @ossl_raise(i64 noundef %4, ptr noundef nonnull @.str.52) #7
  unreachable

5:                                                ; preds = %1
  %6 = tail call ptr @X509_STORE_CTX_get0_current_crl(ptr noundef nonnull %2) #5
  %.not7 = icmp eq ptr %6, null
  br i1 %.not7, label %9, label %7

7:                                                ; preds = %5
  %8 = tail call i64 @ossl_x509crl_new(ptr noundef nonnull %6) #5
  br label %9

9:                                                ; preds = %5, %7
  %.0 = phi i64 [ %8, %7 ], [ 4, %5 ]
  ret i64 %.0
}